; Function Attrs: mustprogress uwtable
define internal fastcc void @"_ZSt21__inplace_stable_sortIN9__gnu_cxx17__normal_iteratorIP2BTINSt7__cxx1112basic_stringIcSt11char_traitsIcESaIcEEEESt6vectorIS9_SaIS9_EEEENS0_5__ops15_Iter_comp_iterIZL23MoveSystemIncludesToEndRSD_RKS8_SJ_PK17cmGeneratorTargetE3$_0EEEvT_SP_T0_"(ptr %0, ptr %1, ptr nocapture noundef readonly byval(%"struct.__gnu_cxx::__ops::_Iter_comp_iter.1069") align 8 %2) unnamed_addr #3 {
  %4 = ptrtoint ptr %1 to i64
  %5 = ptrtoint ptr %0 to i64
  %6 = sub i64 %4, %5
  %7 = icmp slt i64 %6, 720
  br i1 %7, label %common.ret, label %8

common.ret:                                       ; preds = %3
  tail call fastcc void @"_ZSt16__insertion_sortIN9__gnu_cxx17__normal_iteratorIP2BTINSt7__cxx1112basic_stringIcSt11char_traitsIcESaIcEEEESt6vectorIS9_SaIS9_EEEENS0_5__ops15_Iter_comp_iterIZL23MoveSystemIncludesToEndRSD_RKS8_SJ_PK17cmGeneratorTargetE3$_0EEEvT_SP_T0_"(ptr %0, ptr %1, ptr noundef nonnull byval(%"struct.__gnu_cxx::__ops::_Iter_comp_iter.1069") align 8 %2)
  br label %common.ret17

common.ret17:                                     ; preds = %8, %common.ret
  ret void

8:                                                ; preds = %3
  %9 = udiv exact i64 %6, 48
  %10 = lshr i64 %9, 1
  %11 = getelementptr inbounds %class.BT, ptr %0, i64 %10
  tail call fastcc void @"_ZSt21__inplace_stable_sortIN9__gnu_cxx17__normal_iteratorIP2BTINSt7__cxx1112basic_stringIcSt11char_traitsIcESaIcEEEESt6vectorIS9_SaIS9_EEEENS0_5__ops15_Iter_comp_iterIZL23MoveSystemIncludesToEndRSD_RKS8_SJ_PK17cmGeneratorTargetE3$_0EEEvT_SP_T0_"(ptr %0, ptr %11, ptr noundef nonnull byval(%"struct.__gnu_cxx::__ops::_Iter_comp_iter.1069") align 8 %2)
  tail call fastcc void @"_ZSt21__inplace_stable_sortIN9__gnu_cxx17__normal_iteratorIP2BTINSt7__cxx1112basic_stringIcSt11char_traitsIcESaIcEEEESt6vectorIS9_SaIS9_EEEENS0_5__ops15_Iter_comp_iterIZL23MoveSystemIncludesToEndRSD_RKS8_SJ_PK17cmGeneratorTargetE3$_0EEEvT_SP_T0_"(ptr %11, ptr %1, ptr noundef nonnull byval(%"struct.__gnu_cxx::__ops::_Iter_comp_iter.1069") align 8 %2)
  %12 = ptrtoint ptr %11 to i64
  %13 = sub i64 %4, %12
  %14 = sdiv exact i64 %13, 48
  tail call fastcc void @"_ZSt22__merge_without_bufferIN9__gnu_cxx17__normal_iteratorIP2BTINSt7__cxx1112basic_stringIcSt11char_traitsIcESaIcEEEESt6vectorIS9_SaIS9_EEEElNS0_5__ops15_Iter_comp_iterIZL23MoveSystemIncludesToEndRSD_RKS8_SJ_PK17cmGeneratorTargetE3$_0EEEvT_SP_SP_T0_SQ_T1_"(ptr %0, ptr %11, ptr %1, i64 noundef %10, i64 noundef %14, ptr noundef nonnull byval(%"struct.__gnu_cxx::__ops::_Iter_comp_iter.1069") align 8 %2)
  br label %common.ret17
}